target datalayout = "e-m:e-p270:32:32-p271:32:32-p272:64:64-i64:64-i128:128-f80:128-n8:16:32:64-S128"
target triple = "x86_64-unknown-linux-gnu"

%struct.RAMBlock = type { %struct.rcu_head, ptr, ptr, ptr, i64, i64, i64, ptr, i32, [256 x i8], %struct.anon.2, %struct.anon.3, i32, i64, i64, ptr, ptr, ptr, i8, i64 }
%struct.rcu_head = type { ptr, ptr }
%struct.anon.2 = type { ptr, ptr }
%struct.anon.3 = type { ptr }

@.str.4 = private unnamed_addr constant [27 x i8] c"%s: invalid block name: %s\00", align 1
@__func__.ramblock_recv_bitmap_send = private unnamed_addr constant [26 x i8] c"ramblock_recv_bitmap_send\00", align 1

; Function Attrs: nounwind sspstrong uwtable
define internal ptr @bitmap_try_new(i64 noundef %nbits) #0 {
entry:
  %nbits.addr = alloca i64, align 8
  %len = alloca i64, align 8
  store i64 %nbits, ptr %nbits.addr, align 8
  %0 = load i64, ptr %nbits.addr, align 8
  %add = add i64 %0, 64
  %sub = sub i64 %add, 1
  %div = udiv i64 %sub, 64
  %mul = mul i64 %div, 8
  store i64 %mul, ptr %len, align 8
  %1 = load i64, ptr %len, align 8
  %call = call noalias ptr @g_try_malloc0(i64 noundef %1) #18
  ret ptr %call
}

; Function Attrs: nounwind sspstrong uwtable
define internal ptr @bitmap_new(i64 noundef %nbits) #0 {
entry:
  %nbits.addr = alloca i64, align 8
  %ptr = alloca ptr, align 8
  store i64 %nbits, ptr %nbits.addr, align 8
  %0 = load i64, ptr %nbits.addr, align 8
  %call = call ptr @bitmap_try_new(i64 noundef %0)
  store ptr %call, ptr %ptr, align 8
  %1 = load ptr, ptr %ptr, align 8
  %cmp = icmp eq ptr %1, null
  br i1 %cmp, label %if.then, label %if.end

if.then:                                          ; preds = %entry
  call void @abort() #14
  unreachable

if.end:                                           ; preds = %entry
  %2 = load ptr, ptr %ptr, align 8
  ret ptr %2
}

; Function Attrs: nounwind sspstrong uwtable
define dso_local i64 @ramblock_recv_bitmap_send(ptr noundef %file, ptr noundef %block_name) #0 {
entry:
  %retval = alloca i64, align 8
  %file.addr = alloca ptr, align 8
  %block_name.addr = alloca ptr, align 8
  %block = alloca ptr, align 8
  %le_bitmap = alloca ptr, align 8
  %nbits = alloca i64, align 8
  %size = alloca i64, align 8
  %ret = alloca i32, align 4
  store ptr %file, ptr %file.addr, align 8
  store ptr %block_name, ptr %block_name.addr, align 8
  %0 = load ptr, ptr %block_name.addr, align 8
  %call = call ptr @qemu_ram_block_by_name(ptr noundef %0)
  store ptr %call, ptr %block, align 8
  %1 = load ptr, ptr %block, align 8
  %tobool = icmp ne ptr %1, null
  br i1 %tobool, label %if.end, label %if.then

if.then:                                          ; preds = %entry
  %2 = load ptr, ptr %block_name.addr, align 8
  call void (ptr, ...) @error_report(ptr noundef @.str.4, ptr noundef @__func__.ramblock_recv_bitmap_send, ptr noundef %2)
  store i64 -1, ptr %retval, align 8
  br label %return

if.end:                                           ; preds = %entry
  %3 = load ptr, ptr %block, align 8
  %postcopy_length = getelementptr inbounds %struct.RAMBlock, ptr %3, i32 0, i32 19
  %4 = load i64, ptr %postcopy_length, align 8
  %shr = lshr i64 %4, 12
  store i64 %shr, ptr %nbits, align 8
  %5 = load i64, ptr %nbits, align 8
  %add = add i64 %5, 64
  %call1 = call ptr @bitmap_new(i64 noundef %add)
  store ptr %call1, ptr %le_bitmap, align 8
  %6 = load ptr, ptr %le_bitmap, align 8
  %7 = load ptr, ptr %block, align 8
  %receivedmap = getelementptr inbounds %struct.RAMBlock, ptr %7, i32 0, i32 16
  %8 = load ptr, ptr %receivedmap, align 8
  %9 = load i64, ptr %nbits, align 8
  call void @bitmap_to_le(ptr noundef %6, ptr noundef %8, i64 noundef %9)
  %10 = load i64, ptr %nbits, align 8
  %add2 = add i64 %10, 8
  %sub = sub i64 %add2, 1
  %div = udiv i64 %sub, 8
  store i64 %div, ptr %size, align 8
  %11 = load i64, ptr %size, align 8
  %add3 = add i64 %11, 8
  %sub4 = sub i64 %add3, 1
  %and = and i64 %sub4, -8
  store i64 %and, ptr %size, align 8
  %12 = load ptr, ptr %file.addr, align 8
  %13 = load i64, ptr %size, align 8
  call void @qemu_put_be64(ptr noundef %12, i64 noundef %13)
  %14 = load ptr, ptr %file.addr, align 8
  %15 = load ptr, ptr %le_bitmap, align 8
  %16 = load i64, ptr %size, align 8
  call void @qemu_put_buffer(ptr noundef %14, ptr noundef %15, i64 noundef %16)
  %17 = load ptr, ptr %le_bitmap, align 8
  call void @g_free(ptr noundef %17)
  %18 = load ptr, ptr %file.addr, align 8
  call void @qemu_put_be64(ptr noundef %18, i64 noundef 81985529216486895)
  %19 = load ptr, ptr %file.addr, align 8
  %call5 = call i32 @qemu_fflush(ptr noundef %19)
  store i32 %call5, ptr %ret, align 4
  %20 = load i32, ptr %ret, align 4
  %tobool6 = icmp ne i32 %20, 0
  br i1 %tobool6, label %if.then7, label %if.end8

if.then7:                                         ; preds = %if.end
  %21 = load i32, ptr %ret, align 4
  %conv = sext i32 %21 to i64
  store i64 %conv, ptr %retval, align 8
  br label %return

if.end8:                                          ; preds = %if.end
  %22 = load i64, ptr %size, align 8
  %add9 = add i64 %22, 8
  store i64 %add9, ptr %retval, align 8
  br label %return

return:                                           ; preds = %if.end8, %if.then7, %if.then
  %23 = load i64, ptr %retval, align 8
  ret i64 %23
}