; Function Attrs: nounwind sspstrong uwtable
define dso_local range(i64 -2147483648, 562949953421328) i64 @ramblock_recv_bitmap_send(ptr noundef %file, ptr noundef %block_name) local_unnamed_addr #0 {
entry:
  %call = tail call ptr @qemu_ram_block_by_name(ptr noundef %block_name) #18
  %tobool.not = icmp eq ptr %call, null
  br i1 %tobool.not, label %if.then, label %if.end

if.then:                                          ; preds = %entry
  tail call void (ptr, ...) @error_report(ptr noundef nonnull @.str.4, ptr noundef nonnull @__func__.ramblock_recv_bitmap_send, ptr noundef %block_name) #18
  br label %return

if.end:                                           ; preds = %entry
  %postcopy_length = getelementptr inbounds nuw i8, ptr %call, i64 416
  %0 = load i64, ptr %postcopy_length, align 8
  %shr = lshr i64 %0, 12
  %sub.i.i = add nuw nsw i64 %shr, 127
  %1 = lshr i64 %sub.i.i, 3
  %mul.i.i = and i64 %1, 1125899906842616
  %call.i.i = tail call noalias ptr @g_try_malloc0(i64 noundef %mul.i.i) #20
  %cmp.i = icmp eq ptr %call.i.i, null
  br i1 %cmp.i, label %if.then.i, label %bitmap_new.exit

if.then.i:                                        ; preds = %if.end
  tail call void @abort() #19
  unreachable

bitmap_new.exit:                                  ; preds = %if.end
  %receivedmap = getelementptr inbounds nuw i8, ptr %call, i64 392
  %2 = load ptr, ptr %receivedmap, align 8
  tail call void @bitmap_to_le(ptr noundef nonnull %call.i.i, ptr noundef %2, i64 noundef %shr) #18
  %sub = add nuw nsw i64 %shr, 7
  %div15 = lshr i64 %sub, 3
  %sub4 = add nuw nsw i64 %div15, 7
  %and = and i64 %sub4, 2251799813685240
  tail call void @qemu_put_be64(ptr noundef %file, i64 noundef %and) #18
  tail call void @qemu_put_buffer(ptr noundef %file, ptr noundef nonnull %call.i.i, i64 noundef %and) #18
  tail call void @g_free(ptr noundef nonnull %call.i.i) #18
  tail call void @qemu_put_be64(ptr noundef %file, i64 noundef 81985529216486895) #18
  %call5 = tail call i32 @qemu_fflush(ptr noundef %file) #18
  %tobool6.not = icmp eq i32 %call5, 0
  br i1 %tobool6.not, label %if.end8, label %if.then7

if.then7:                                         ; preds = %bitmap_new.exit
  %conv = sext i32 %call5 to i64
  br label %return

if.end8:                                          ; preds = %bitmap_new.exit
  %add9 = add nuw nsw i64 %and, 8
  br label %return

return:                                           ; preds = %if.end8, %if.then7, %if.then
  %retval.0 = phi i64 [ %conv, %if.then7 ], [ %add9, %if.end8 ], [ -1, %if.then ]
  ret i64 %retval.0
}